; Function Attrs: mustprogress uwtable
define void @_ZN6casadi4NormC2ERKNS_2MXE(ptr noundef nonnull align 8 dereferenceable(64) %0, ptr noundef nonnull align 8 dereferenceable(8) %1) unnamed_addr #3 align 2 personality ptr @__gxx_personality_v0 {
  %3 = alloca %"class.casadi::Sparsity", align 8
  tail call void @_ZN6casadi6MXNodeC2Ev(ptr noundef nonnull align 8 dereferenceable(64) %0)
  store ptr getelementptr inbounds nuw inrange(-16, 888) (i8, ptr @_ZTVN6casadi4NormE, i64 16), ptr %0, align 8, !tbaa !3
  invoke void @_ZN6casadi6MXNode7set_depERKNS_2MXE(ptr noundef nonnull align 8 dereferenceable(64) %0, ptr noundef nonnull align 8 dereferenceable(8) %1)
          to label %4 unwind label %9

4:                                                ; preds = %2
  call void @llvm.lifetime.start.p0(i64 8, ptr nonnull %3) #22
  invoke void @_ZN6casadi8Sparsity5denseExx(ptr dead_on_unwind nonnull writable sret(%"class.casadi::Sparsity") align 8 %3, i64 noundef 1, i64 noundef 1)
          to label %_ZN6casadi8Sparsity6scalarEb.exit unwind label %11

_ZN6casadi8Sparsity6scalarEb.exit:                ; preds = %4
  invoke void @_ZN6casadi6MXNode12set_sparsityERKNS_8SparsityE(ptr noundef nonnull align 8 dereferenceable(64) %0, ptr noundef nonnull align 8 dereferenceable(8) %3)
          to label %5 unwind label %13

5:                                                ; preds = %_ZN6casadi8Sparsity6scalarEb.exit
  invoke void @_ZN6casadi13GenericSharedINS_12SharedObjectENS_20SharedObjectInternalEE10count_downEv(ptr noundef nonnull align 8 dereferenceable(8) %3)
          to label %_ZN6casadi13GenericSharedINS_12SharedObjectENS_20SharedObjectInternalEED2Ev.exit unwind label %6

6:                                                ; preds = %5
  %7 = landingpad { ptr, i32 }
          catch ptr null
  %8 = extractvalue { ptr, i32 } %7, 0
  call void @__clang_call_terminate(ptr %8) #23
  unreachable

_ZN6casadi13GenericSharedINS_12SharedObjectENS_20SharedObjectInternalEED2Ev.exit: ; preds = %5
  call void @llvm.lifetime.end.p0(i64 8, ptr nonnull %3) #22
  ret void

9:                                                ; preds = %2
  %10 = landingpad { ptr, i32 }
          cleanup
  br label %18

11:                                               ; preds = %4
  %12 = landingpad { ptr, i32 }
          cleanup
  br label %_ZN6casadi13GenericSharedINS_12SharedObjectENS_20SharedObjectInternalEED2Ev.exit7

13:                                               ; preds = %_ZN6casadi8Sparsity6scalarEb.exit
  %14 = landingpad { ptr, i32 }
          cleanup
  invoke void @_ZN6casadi13GenericSharedINS_12SharedObjectENS_20SharedObjectInternalEE10count_downEv(ptr noundef nonnull align 8 dereferenceable(8) %3)
          to label %_ZN6casadi13GenericSharedINS_12SharedObjectENS_20SharedObjectInternalEED2Ev.exit7 unwind label %15

15:                                               ; preds = %13
  %16 = landingpad { ptr, i32 }
          catch ptr null
  %17 = extractvalue { ptr, i32 } %16, 0
  call void @__clang_call_terminate(ptr %17) #23
  unreachable

_ZN6casadi13GenericSharedINS_12SharedObjectENS_20SharedObjectInternalEED2Ev.exit7: ; preds = %13, %11
  %.pn = phi { ptr, i32 } [ %12, %11 ], [ %14, %13 ]
  call void @llvm.lifetime.end.p0(i64 8, ptr nonnull %3) #22
  br label %18

18:                                               ; preds = %_ZN6casadi13GenericSharedINS_12SharedObjectENS_20SharedObjectInternalEED2Ev.exit7, %9
  %.pn.pn = phi { ptr, i32 } [ %.pn, %_ZN6casadi13GenericSharedINS_12SharedObjectENS_20SharedObjectInternalEED2Ev.exit7 ], [ %10, %9 ]
  call void @_ZN6casadi6MXNodeD2Ev(ptr noundef nonnull align 8 dereferenceable(64) %0) #22
  resume { ptr, i32 } %.pn.pn
}